Certificate:
    Data:
        Version: 3 (0x2)
        Serial Number: 4097 (0x1001)
        Signature Algorithm: sha256WithRSAEncryption
        Issuer: C=CN, ST=Beijing, L=Beijing, O=Qunar, CN=JerryProxyCA/emailAddress=jiao.shen@qunar.com
        Validity
            Not Before: Jul 31 18:56:37 2016 GMT
            Not After : Jul 26 18:56:37 2036 GMT
        Subject: C=CN, ST=Beijing, O=Qunar, CN=www.qunar.com/emailAddress=jiao.shen@qunar.com
        Subject Public Key Info:
            Public Key Algorithm: rsaEncryption
            RSA Public Key: (2048 bit)
                Modulus (2048 bit):
                    00:ad:e3:7d:de:c0:70:60:7d:4d:cc:38:72:e1:26:
                    c7:a2:aa:d1:fb:4f:b5:fb:18:e9:d3:66:f7:2d:56:
                    e7:10:cb:6f:6b:c7:80:59:4b:18:23:20:20:f0:ea:
                    41:4a:36:c5:e1:65:57:60:0a:b2:c3:90:47:61:e1:
                    53:67:e9:88:7a:7a:cd:ae:20:99:03:62:db:da:df:
                    29:c9:8e:58:97:eb:72:f4:e8:31:4d:8f:d0:69:e2:
                    7f:58:f0:a0:93:5e:d5:10:7a:96:91:9f:08:bc:2d:
                    48:c3:21:64:d1:2c:0b:9b:40:50:86:9c:a7:d6:66:
                    37:dc:7b:36:62:6d:ec:2a:44:8a:2c:83:6a:c5:42:
                    d6:9f:4f:96:5a:31:a9:3f:19:42:17:1a:8e:ba:67:
                    cc:c8:8f:81:10:d7:e8:ec:e5:ac:8e:b6:21:50:fe:
                    27:19:89:10:4c:e0:00:3f:fd:c9:fe:84:3d:79:6f:
                    73:a6:1d:7e:66:79:07:84:56:33:84:63:1a:c5:e2:
                    1e:7a:ad:33:96:aa:fa:9c:f4:f9:25:82:7f:48:97:
                    09:e5:9e:51:78:34:25:48:81:1b:a5:7c:f5:75:90:
                    7b:05:16:bd:40:71:04:9b:7e:7e:85:1d:3a:04:04:
                    be:fc:92:3e:3f:a3:48:92:92:7e:0e:80:32:77:a6:
                    5d:2f
                Exponent: 65537 (0x10001)
        X509v3 extensions:
            X509v3 Basic Constraints: 
                CA:FALSE
            X509v3 Key Usage: 
                Digital Signature, Non Repudiation, Key Encipherment
            X509v3 Subject Alternative Name: 
                DNS:*.qunar.com, DNS:*.qunarzz.com, DNS:qunarzz.com
    Signature Algorithm: sha256WithRSAEncryption
        9c:e5:6a:8d:5e:4d:ab:ef:29:25:ad:ff:42:a5:56:fe:dc:9a:
        26:7a:a4:49:f2:e1:32:d5:2e:d7:97:a0:2a:7e:93:ae:67:9d:
        29:75:ac:4b:e0:57:e4:51:00:bb:c9:b3:73:16:a9:ce:08:2a:
        3e:4a:ef:a0:5b:b6:37:37:63:ee:bd:c9:72:83:e0:7a:7e:cd:
        da:e6:80:bb:5b:76:6b:e5:c9:99:18:ad:86:5d:0b:80:73:b3:
        e5:b0:25:4e:f0:0a:18:a9:9b:4c:6f:65:f5:40:3b:bd:8c:bf:
        fe:9d:27:6b:53:b2:60:72:75:f0:d8:c2:e8:6f:15:d6:4d:61:
        5d:ed:ee:b5:a0:b0:a5:5d:77:de:0f:1d:32:63:cd:6a:38:8d:
        6f:e6:e9:95:c8:91:a0:ed:93:a9:e2:97:34:bd:3c:cb:d8:49:
        8d:1a:ff:0a:ed:c6:84:65:b9:7e:70:5b:9c:58:8b:04:db:dc:
        9f:cd:83:36:f1:bd:c8:b9:c3:81:f3:d3:ae:17:d3:35:ba:f9:
        20:87:80:37:a8:96:7a:ee:f3:71:7f:63:24:07:cd:c4:18:33:
        f6:d0:47:61:fb:63:de:b2:f5:8c:6e:30:e7:37:13:89:59:87:
        45:cc:53:72:23:e0:55:4f:d5:6d:0d:fe:7d:11:03:d8:2f:9c:
        9b:b4:df:dd:1e:6c:38:91:6e:6e:f3:3f:74:d3:cb:97:1e:9f:
        28:b6:f4:12:1e:64:45:41:04:1c:03:1e:c1:d4:99:e0:00:41:
        0f:95:bf:fc:2c:75:fa:b8:33:17:fd:c0:ef:80:10:48:ea:ad:
        e9:2e:87:d4:96:2a:f8:72:32:e5:60:00:2c:7c:1e:28:f4:25:
        4a:ea:ca:af:bf:1e:a3:b8:29:e4:cc:21:4d:b7:2b:fe:9c:e5:
        33:fe:4f:5f:9a:8e:11:aa:d8:b9:df:4d:5d:e3:8b:40:a4:3f:
        10:bf:a4:03:ca:64:63:b5:5d:8c:aa:01:b0:1d:57:be:82:cd:
        9d:8e:9b:de:4e:3a:16:2b:5f:50:92:20:47:91:56:eb:41:29:
        16:82:45:ac:7e:03:d1:1e:b4:be:97:f7:0f:d3:99:07:d0:54:
        53:d9:61:4e:ea:cb:88:89:37:c9:3f:db:d5:3e:11:7e:f3:a8:
        a4:17:0c:fc:31:b2:dc:e6:15:6a:1f:b6:b0:5a:ce:83:2e:6e:
        6a:b7:59:23:07:8a:9a:b5:c9:d0:3d:fb:11:6e:cd:40:78:e5:
        7e:0d:e6:f8:f8:e5:66:b5:e0:76:d7:3a:1a:f8:69:78:ce:5f:
        75:87:a0:42:6f:8d:d0:fa:72:ec:40:fe:b6:a8:6f:b7:59:3c:
        c0:20:78:d5:b5:dd:fc:01
-----BEGIN CERTIFICATE-----
MIIEsTCCApmgAwIBAgICEAEwDQYJKoZIhvcNAQELBQAwfDELMAkGA1UEBhMCQ04x
EDAOBgNVBAgTB0JlaWppbmcxEDAOBgNVBAcTB0JlaWppbmcxDjAMBgNVBAoTBVF1
bmFyMRUwEwYDVQQDEwxKZXJyeVByb3h5Q0ExIjAgBgkqhkiG9w0BCQEWE2ppYW8u
c2hlbkBxdW5hci5jb20wHhcNMTYwNzMxMTg1NjM3WhcNMzYwNzI2MTg1NjM3WjBr
MQswCQYDVQQGEwJDTjEQMA4GA1UECBMHQmVpamluZzEOMAwGA1UEChMFUXVuYXIx
FjAUBgNVBAMTDXd3dy5xdW5hci5jb20xIjAgBgkqhkiG9w0BCQEWE2ppYW8uc2hl
bkBxdW5hci5jb20wggEiMA0GCSqGSIb3DQEBAQUAA4IBDwAwggEKAoIBAQCt433e
wHBgfU3MOHLhJseiqtH7T7X7GOnTZvctVucQy29rx4BZSxgjICDw6kFKNsXhZVdg
CrLDkEdh4VNn6Yh6es2uIJkDYtva3ynJjliX63L06DFNj9Bp4n9Y8KCTXtUQepaR
nwi8LUjDIWTRLAubQFCGnKfWZjfcezZibewqRIosg2rFQtafT5ZaMak/GUIXGo66
Z8zIj4EQ1+js5ayOtiFQ/icZiRBM4AA//cn+hD15b3OmHX5meQeEVjOEYxrF4h56
rTOWqvqc9Pklgn9IlwnlnlF4NCVIgRulfPV1kHsFFr1AcQSbfn6FHToEBL78kj4/
o0iSkn4OgDJ3pl0vAgMBAAGjTjBMMAkGA1UdEwQCMAAwCwYDVR0PBAQDAgXgMDIG
A1UdEQQrMCmCCyoucXVuYXIuY29tgg0qLnF1bmFyenouY29tggtxdW5hcnp6LmNv
bTANBgkqhkiG9w0BAQsFAAOCAgEAnOVqjV5Nq+8pJa3/QqVW/tyaJnqkSfLhMtUu
15egKn6TrmedKXWsS+BX5FEAu8mzcxapzggqPkrvoFu2Nzdj7r3JcoPgen7N2uaA
u1t2a+XJmRithl0LgHOz5bAlTvAKGKmbTG9l9UA7vYy//p0na1OyYHJ18NjC6G8V
1k1hXe3utaCwpV133g8dMmPNajiNb+bplciRoO2TqeKXNL08y9hJjRr/Cu3GhGW5
fnBbnFiLBNvcn82DNvG9yLnDgfPTrhfTNbr5IIeAN6iWeu7zcX9jJAfNxBgz9tBH
Yftj3rL1jG4w5zcTiVmHRcxTciPgVU/VbQ3+fRED2C+cm7Tf3R5sOJFubvM/dNPL
lx6fKLb0Eh5kRUEEHAMewdSZ4ABBD5W//Cx1+rgzF/3A74AQSOqt6S6H1JYq+HIy
5WAALHweKPQlSurKr78eo7gp5MwhTbcr/pzlM/5PX5qOEarYud9NXeOLQKQ/EL+k
A8pkY7VdjKoBsB1XvoLNnY6b3k46FitfUJIgR5FW60EpFoJFrH4D0R60vpf3D9OZ
B9BUU9lhTurLiIk3yT/b1T4RfvOopBcM/DGy3OYVah+2sFrOgy5uardZIweKmrXJ
0D37EW7NQHjlfg3m+PjlZrXgdtc6GvhpeM5fdYegQm+N0Ppy7ED+tqhvt1k8wCB4
1bXd/AE=
-----END CERTIFICATE-----
